target datalayout = "e-m:e-p270:32:32-p271:32:32-p272:64:64-i64:64-i128:128-f80:128-n8:16:32:64-S128"
target triple = "x86_64-pc-linux-gnu"

%class.b3Vector3 = type { %union.anon }
%union.anon = type { [4 x float] }
%class.b3GpuNarrowPhase = type { ptr, ptr, i32, i32, i32, ptr, ptr, ptr }
%struct.b3GpuNarrowPhaseInternalData = type { ptr, %class.b3AlignedObjectArray, %class.b3AlignedObjectArray.0, %class.b3AlignedObjectArray.0, %class.b3AlignedObjectArray.2, ptr, ptr, ptr, ptr, ptr, ptr, ptr, ptr, ptr, %class.b3AlignedObjectArray.4, ptr, %class.b3AlignedObjectArray.6, ptr, ptr, ptr, [2 x ptr], i32, ptr, ptr, ptr, ptr, ptr, i32, i32, %class.b3AlignedObjectArray.8, ptr, ptr, ptr, %class.b3AlignedObjectArray.10, %class.b3AlignedObjectArray.12, %class.b3AlignedObjectArray.14, %class.b3AlignedObjectArray.16, %class.b3AlignedObjectArray.18, ptr, ptr, ptr, %struct.b3Config }
%class.b3AlignedObjectArray = type <{ [4 x i8], i32, i32, [4 x i8], ptr, i8, [7 x i8] }>
%class.b3AlignedObjectArray.0 = type <{ [4 x i8], i32, i32, [4 x i8], ptr, i8, [7 x i8] }>
%class.b3AlignedObjectArray.2 = type <{ [4 x i8], i32, i32, [4 x i8], ptr, i8, [7 x i8] }>
%class.b3AlignedObjectArray.4 = type <{ [4 x i8], i32, i32, [4 x i8], ptr, i8, [7 x i8] }>
%class.b3AlignedObjectArray.6 = type <{ [4 x i8], i32, i32, [4 x i8], ptr, i8, [7 x i8] }>
%class.b3AlignedObjectArray.8 = type <{ [4 x i8], i32, i32, [4 x i8], ptr, i8, [7 x i8] }>
%class.b3AlignedObjectArray.10 = type <{ [4 x i8], i32, i32, [4 x i8], ptr, i8, [7 x i8] }>
%class.b3AlignedObjectArray.12 = type <{ [4 x i8], i32, i32, [4 x i8], ptr, i8, [7 x i8] }>
%class.b3AlignedObjectArray.14 = type <{ [4 x i8], i32, i32, [4 x i8], ptr, i8, [7 x i8] }>
%class.b3AlignedObjectArray.16 = type <{ [4 x i8], i32, i32, [4 x i8], ptr, i8, [7 x i8] }>
%class.b3AlignedObjectArray.18 = type <{ [4 x i8], i32, i32, [4 x i8], ptr, i8, [7 x i8] }>
%struct.b3Config = type { i32, i32, i32, i32, i32, i32, i32, i32, i32, i32, i32, i32 }
%struct.b3Collidable = type { %union.anon.66, %union.anon.67, i32, %union.anon.68 }
%union.anon.66 = type { i32 }
%union.anon.67 = type { float }
%union.anon.68 = type { i32 }
%struct.b3SapAabb = type { %struct.b3Aabb }
%struct.b3Aabb = type { %union.anon.69, %union.anon.70 }
%union.anon.69 = type { [4 x float] }
%union.anon.70 = type { [4 x float] }
%struct.b3GpuFace = type { %class.b3Vector3, i32, i32, i32, i32 }
%struct.anon = type { float, float, float, float }

@.str = private unnamed_addr constant [17 x i8] c"b3Error[%s,%d]:\0A\00", align 1
@.str.1 = private unnamed_addr constant [142 x i8] c"generated/home/dtcxzyw/WorkSpace/Projects/compilers/llvm-opt-benchmark/bench/bullet3/bullet3/src/Bullet3OpenCL/RigidBody/b3GpuNarrowPhase.cpp\00", align 1
@.str.2 = private unnamed_addr constant [36 x i8] c"allocateCollidable out-of-range %d\0A\00", align 1
@__clewFinish = external global ptr, align 8

; Function Attrs: inlinehint mustprogress nounwind uwtable
define linkonce_odr dso_local void @_ZN9b3Vector38setValueERKfS1_S1_(ptr noundef nonnull align 16 dereferenceable(16) %0, ptr noundef nonnull align 4 dereferenceable(4) %1, ptr noundef nonnull align 4 dereferenceable(4) %2, ptr noundef nonnull align 4 dereferenceable(4) %3) #9 comdat align 2 {
  %5 = alloca ptr, align 8
  %6 = alloca ptr, align 8
  %7 = alloca ptr, align 8
  %8 = alloca ptr, align 8
  store ptr %0, ptr %5, align 8, !tbaa !276
  store ptr %1, ptr %6, align 8, !tbaa !397
  store ptr %2, ptr %7, align 8, !tbaa !397
  store ptr %3, ptr %8, align 8, !tbaa !397
  %9 = load ptr, ptr %5, align 8
  %10 = load ptr, ptr %6, align 8, !tbaa !397
  %11 = load float, ptr %10, align 4, !tbaa !309
  %12 = getelementptr inbounds nuw %class.b3Vector3, ptr %9, i32 0, i32 0
  %13 = getelementptr inbounds [4 x float], ptr %12, i64 0, i64 0
  store float %11, ptr %13, align 16, !tbaa !308
  %14 = load ptr, ptr %7, align 8, !tbaa !397
  %15 = load float, ptr %14, align 4, !tbaa !309
  %16 = getelementptr inbounds nuw %class.b3Vector3, ptr %9, i32 0, i32 0
  %17 = getelementptr inbounds [4 x float], ptr %16, i64 0, i64 1
  store float %15, ptr %17, align 4, !tbaa !308
  %18 = load ptr, ptr %8, align 8, !tbaa !397
  %19 = load float, ptr %18, align 4, !tbaa !309
  %20 = getelementptr inbounds nuw %class.b3Vector3, ptr %9, i32 0, i32 0
  %21 = getelementptr inbounds [4 x float], ptr %20, i64 0, i64 2
  store float %19, ptr %21, align 8, !tbaa !308
  %22 = getelementptr inbounds nuw %class.b3Vector3, ptr %9, i32 0, i32 0
  %23 = getelementptr inbounds [4 x float], ptr %22, i64 0, i64 3
  store float 0.000000e+00, ptr %23, align 4, !tbaa !308
  ret void
}

; Function Attrs: inlinehint mustprogress uwtable
define linkonce_odr dso_local { <2 x float>, <2 x float> } @_Z13b3MakeVector3ffff(float noundef %0, float noundef %1, float noundef %2, float noundef %3) #3 comdat {
  %5 = alloca %class.b3Vector3, align 16
  %6 = alloca float, align 4
  %7 = alloca float, align 4
  %8 = alloca float, align 4
  %9 = alloca float, align 4
  store float %0, ptr %6, align 4, !tbaa !309
  store float %1, ptr %7, align 4, !tbaa !309
  store float %2, ptr %8, align 4, !tbaa !309
  store float %3, ptr %9, align 4, !tbaa !309
  call void @_ZN9b3Vector38setValueERKfS1_S1_(ptr noundef nonnull align 16 dereferenceable(16) %5, ptr noundef nonnull align 4 dereferenceable(4) %6, ptr noundef nonnull align 4 dereferenceable(4) %7, ptr noundef nonnull align 4 dereferenceable(4) %8)
  %10 = load float, ptr %9, align 4, !tbaa !309
  %11 = getelementptr inbounds nuw %class.b3Vector3, ptr %5, i32 0, i32 0
  %12 = getelementptr inbounds nuw %struct.anon, ptr %11, i32 0, i32 3
  store float %10, ptr %12, align 4, !tbaa !308
  %13 = getelementptr inbounds nuw %class.b3Vector3, ptr %5, i32 0, i32 0
  %14 = getelementptr inbounds nuw %union.anon, ptr %13, i32 0, i32 0
  %15 = load { <2 x float>, <2 x float> }, ptr %14, align 16
  ret { <2 x float>, <2 x float> } %15
}

; Function Attrs: inlinehint mustprogress nounwind uwtable
define linkonce_odr dso_local noundef i32 @_ZNK20b3AlignedObjectArrayI9b3GpuFaceE4sizeEv(ptr noundef nonnull align 8 dereferenceable(25) %0) #9 comdat align 2 {
  %2 = alloca ptr, align 8
  store ptr %0, ptr %2, align 8, !tbaa !233
  %3 = load ptr, ptr %2, align 8
  %4 = getelementptr inbounds nuw %class.b3AlignedObjectArray.6, ptr %3, i32 0, i32 1
  %5 = load i32, ptr %4, align 4, !tbaa !236
  ret i32 %5
}

; Function Attrs: inlinehint mustprogress nounwind uwtable
define linkonce_odr dso_local noundef nonnull align 4 dereferenceable(16) ptr @_ZN20b3AlignedObjectArrayI12b3CollidableEixEi(ptr noundef nonnull align 8 dereferenceable(25) %0, i32 noundef %1) #9 comdat align 2 {
  %3 = alloca ptr, align 8
  %4 = alloca i32, align 4
  store ptr %0, ptr %3, align 8, !tbaa !198
  store i32 %1, ptr %4, align 4, !tbaa !85
  %5 = load ptr, ptr %3, align 8
  %6 = getelementptr inbounds nuw %class.b3AlignedObjectArray.8, ptr %5, i32 0, i32 4
  %7 = load ptr, ptr %6, align 8, !tbaa !203
  %8 = load i32, ptr %4, align 4, !tbaa !85
  %9 = sext i32 %8 to i64
  %10 = getelementptr inbounds %struct.b3Collidable, ptr %7, i64 %9
  ret ptr %10
}

; Function Attrs: inlinehint mustprogress nounwind uwtable
define linkonce_odr dso_local noundef i32 @_ZNK20b3AlignedObjectArrayI12b3CollidableE4sizeEv(ptr noundef nonnull align 8 dereferenceable(25) %0) #9 comdat align 2 {
  %2 = alloca ptr, align 8
  store ptr %0, ptr %2, align 8, !tbaa !198
  %3 = load ptr, ptr %2, align 8
  %4 = getelementptr inbounds nuw %class.b3AlignedObjectArray.8, ptr %3, i32 0, i32 1
  %5 = load i32, ptr %4, align 4, !tbaa !201
  ret i32 %5
}

; Function Attrs: mustprogress uwtable
define dso_local noundef i32 @_ZN16b3GpuNarrowPhase12registerFaceERK9b3Vector3f(ptr noundef nonnull align 8 dereferenceable(56) %0, ptr noundef nonnull align 16 dereferenceable(16) %1, float noundef %2) #11 align 2 {
  %4 = alloca ptr, align 8
  %5 = alloca ptr, align 8
  %6 = alloca float, align 4
  %7 = alloca i32, align 4
  %8 = alloca ptr, align 8
  %9 = alloca %struct.b3GpuFace, align 16
  %10 = alloca %class.b3Vector3, align 16
  store ptr %0, ptr %4, align 8, !tbaa !4
  store ptr %1, ptr %5, align 8, !tbaa !276
  store float %2, ptr %6, align 4, !tbaa !309
  %11 = load ptr, ptr %4, align 8
  call void @llvm.lifetime.start.p0(i64 4, ptr %7) #16
  %12 = getelementptr inbounds nuw %class.b3GpuNarrowPhase, ptr %11, i32 0, i32 1
  %13 = load ptr, ptr %12, align 8, !tbaa !19
  %14 = getelementptr inbounds nuw %struct.b3GpuNarrowPhaseInternalData, ptr %13, i32 0, i32 16
  %15 = call noundef i32 @_ZNK20b3AlignedObjectArrayI9b3GpuFaceE4sizeEv(ptr noundef nonnull align 8 dereferenceable(25) %14)
  store i32 %15, ptr %7, align 4, !tbaa !85
  call void @llvm.lifetime.start.p0(i64 8, ptr %8) #16
  %16 = getelementptr inbounds nuw %class.b3GpuNarrowPhase, ptr %11, i32 0, i32 1
  %17 = load ptr, ptr %16, align 8, !tbaa !19
  %18 = getelementptr inbounds nuw %struct.b3GpuNarrowPhaseInternalData, ptr %17, i32 0, i32 16
  call void @llvm.lifetime.start.p0(i64 32, ptr %9) #16
  call void @llvm.memset.p0.i64(ptr align 16 %9, i8 0, i64 32, i1 false)
  %19 = call noundef nonnull align 16 dereferenceable(32) ptr @_ZN20b3AlignedObjectArrayI9b3GpuFaceE6expandERKS0_(ptr noundef nonnull align 8 dereferenceable(25) %18, ptr noundef nonnull align 16 dereferenceable(32) %9)
  call void @llvm.lifetime.end.p0(i64 32, ptr %9) #16
  store ptr %19, ptr %8, align 8, !tbaa !235
  call void @llvm.lifetime.start.p0(i64 16, ptr %10) #16
  %20 = load ptr, ptr %5, align 8, !tbaa !276
  %21 = getelementptr inbounds nuw %class.b3Vector3, ptr %20, i32 0, i32 0
  %22 = getelementptr inbounds nuw %struct.anon, ptr %21, i32 0, i32 0
  %23 = load float, ptr %22, align 16, !tbaa !308
  %24 = load ptr, ptr %5, align 8, !tbaa !276
  %25 = getelementptr inbounds nuw %class.b3Vector3, ptr %24, i32 0, i32 0
  %26 = getelementptr inbounds nuw %struct.anon, ptr %25, i32 0, i32 1
  %27 = load float, ptr %26, align 4, !tbaa !308
  %28 = load ptr, ptr %5, align 8, !tbaa !276
  %29 = getelementptr inbounds nuw %class.b3Vector3, ptr %28, i32 0, i32 0
  %30 = getelementptr inbounds nuw %struct.anon, ptr %29, i32 0, i32 2
  %31 = load float, ptr %30, align 8, !tbaa !308
  %32 = load float, ptr %6, align 4, !tbaa !309
  %33 = call { <2 x float>, <2 x float> } @_Z13b3MakeVector3ffff(float noundef %23, float noundef %27, float noundef %31, float noundef %32)
  %34 = getelementptr inbounds nuw %class.b3Vector3, ptr %10, i32 0, i32 0
  %35 = getelementptr inbounds nuw %union.anon, ptr %34, i32 0, i32 0
  %36 = getelementptr inbounds nuw { <2 x float>, <2 x float> }, ptr %35, i32 0, i32 0
  %37 = extractvalue { <2 x float>, <2 x float> } %33, 0
  store <2 x float> %37, ptr %36, align 16
  %38 = getelementptr inbounds nuw { <2 x float>, <2 x float> }, ptr %35, i32 0, i32 1
  %39 = extractvalue { <2 x float>, <2 x float> } %33, 1
  store <2 x float> %39, ptr %38, align 8
  %40 = load ptr, ptr %8, align 8, !tbaa !235
  %41 = getelementptr inbounds nuw %struct.b3GpuFace, ptr %40, i32 0, i32 0
  call void @llvm.memcpy.p0.p0.i64(ptr align 16 %41, ptr align 16 %10, i64 16, i1 false), !tbaa.struct !364
  call void @llvm.lifetime.end.p0(i64 16, ptr %10) #16
  %42 = load i32, ptr %7, align 4, !tbaa !85
  call void @llvm.lifetime.end.p0(i64 8, ptr %8) #16
  call void @llvm.lifetime.end.p0(i64 4, ptr %7) #16
  ret i32 %42
}

; Function Attrs: mustprogress uwtable
define dso_local noundef nonnull align 4 dereferenceable(16) ptr @_ZN16b3GpuNarrowPhase16getCollidableCpuEi(ptr noundef nonnull align 8 dereferenceable(56) %0, i32 noundef %1) #0 align 2 {
  %3 = alloca ptr, align 8
  %4 = alloca i32, align 4
  store ptr %0, ptr %3, align 8, !tbaa !4
  store i32 %1, ptr %4, align 4, !tbaa !85
  %5 = load ptr, ptr %3, align 8
  %6 = getelementptr inbounds nuw %class.b3GpuNarrowPhase, ptr %5, i32 0, i32 1
  %7 = load ptr, ptr %6, align 8, !tbaa !19
  %8 = getelementptr inbounds nuw %struct.b3GpuNarrowPhaseInternalData, ptr %7, i32 0, i32 29
  %9 = load i32, ptr %4, align 4, !tbaa !85
  %10 = call noundef nonnull align 4 dereferenceable(16) ptr @_ZN20b3AlignedObjectArrayI12b3CollidableEixEi(ptr noundef nonnull align 8 dereferenceable(25) %8, i32 noundef %9)
  ret ptr %10
}

; Function Attrs: mustprogress uwtable
define dso_local noundef i32 @_ZN16b3GpuNarrowPhase18allocateCollidableEv(ptr noundef nonnull align 8 dereferenceable(56) %0) #0 align 2 {
  %2 = alloca i32, align 4
  %3 = alloca ptr, align 8
  %4 = alloca i32, align 4
  %5 = alloca %struct.b3Collidable, align 4
  %6 = alloca i32, align 4
  store ptr %0, ptr %3, align 8, !tbaa !4
  %7 = load ptr, ptr %3, align 8
  call void @llvm.lifetime.start.p0(i64 4, ptr %4) #16
  %8 = getelementptr inbounds nuw %class.b3GpuNarrowPhase, ptr %7, i32 0, i32 1
  %9 = load ptr, ptr %8, align 8, !tbaa !19
  %10 = getelementptr inbounds nuw %struct.b3GpuNarrowPhaseInternalData, ptr %9, i32 0, i32 29
  %11 = call noundef i32 @_ZNK20b3AlignedObjectArrayI12b3CollidableE4sizeEv(ptr noundef nonnull align 8 dereferenceable(25) %10)
  store i32 %11, ptr %4, align 4, !tbaa !85
  %12 = load i32, ptr %4, align 4, !tbaa !85
  %13 = getelementptr inbounds nuw %class.b3GpuNarrowPhase, ptr %7, i32 0, i32 1
  %14 = load ptr, ptr %13, align 8, !tbaa !19
  %15 = getelementptr inbounds nuw %struct.b3GpuNarrowPhaseInternalData, ptr %14, i32 0, i32 41
  %16 = getelementptr inbounds nuw %struct.b3Config, ptr %15, i32 0, i32 1
  %17 = load i32, ptr %16, align 4, !tbaa !353
  %18 = icmp slt i32 %12, %17
  br i1 %18, label %19, label %25

19:                                               ; preds = %1
  %20 = getelementptr inbounds nuw %class.b3GpuNarrowPhase, ptr %7, i32 0, i32 1
  %21 = load ptr, ptr %20, align 8, !tbaa !19
  %22 = getelementptr inbounds nuw %struct.b3GpuNarrowPhaseInternalData, ptr %21, i32 0, i32 29
  call void @llvm.lifetime.start.p0(i64 16, ptr %5) #16
  call void @llvm.memset.p0.i64(ptr align 4 %5, i8 0, i64 16, i1 false)
  %23 = call noundef nonnull align 4 dereferenceable(16) ptr @_ZN20b3AlignedObjectArrayI12b3CollidableE6expandERKS0_(ptr noundef nonnull align 8 dereferenceable(25) %22, ptr noundef nonnull align 4 dereferenceable(16) %5)
  call void @llvm.lifetime.end.p0(i64 16, ptr %5) #16
  %24 = load i32, ptr %4, align 4, !tbaa !85
  store i32 %24, ptr %2, align 4
  store i32 1, ptr %6, align 4
  br label %35

25:                                               ; preds = %1
  br label %26

26:                                               ; preds = %25
  call void (ptr, ...) @b3OutputErrorMessageVarArgsInternal(ptr noundef @.str, ptr noundef @.str.1, i32 noundef 154)
  %27 = getelementptr inbounds nuw %class.b3GpuNarrowPhase, ptr %7, i32 0, i32 1
  %28 = load ptr, ptr %27, align 8, !tbaa !19
  %29 = getelementptr inbounds nuw %struct.b3GpuNarrowPhaseInternalData, ptr %28, i32 0, i32 41
  %30 = getelementptr inbounds nuw %struct.b3Config, ptr %29, i32 0, i32 1
  %31 = load i32, ptr %30, align 4, !tbaa !353
  call void (ptr, ...) @b3OutputErrorMessageVarArgsInternal(ptr noundef @.str.2, i32 noundef %31)
  br label %32

32:                                               ; preds = %26
  br label %33

33:                                               ; preds = %32
  br label %34

34:                                               ; preds = %33
  store i32 -1, ptr %2, align 4
  store i32 1, ptr %6, align 4
  br label %35

35:                                               ; preds = %34, %19
  call void @llvm.lifetime.end.p0(i64 4, ptr %4) #16
  %36 = load i32, ptr %2, align 4
  ret i32 %36
}

; Function Attrs: mustprogress uwtable
define dso_local noundef i32 @_ZN16b3GpuNarrowPhase18registerPlaneShapeERK9b3Vector3f(ptr noundef nonnull align 8 dereferenceable(56) %0, ptr noundef nonnull align 16 dereferenceable(16) %1, float noundef %2) #0 align 2 {
  %4 = alloca i32, align 4
  %5 = alloca ptr, align 8
  %6 = alloca ptr, align 8
  %7 = alloca float, align 4
  %8 = alloca i32, align 4
  %9 = alloca i32, align 4
  %10 = alloca ptr, align 8
  %11 = alloca %struct.b3SapAabb, align 16
  store ptr %0, ptr %5, align 8, !tbaa !4
  store ptr %1, ptr %6, align 8, !tbaa !276
  store float %2, ptr %7, align 4, !tbaa !309
  %12 = load ptr, ptr %5, align 8
  call void @llvm.lifetime.start.p0(i64 4, ptr %8) #16
  %13 = call noundef i32 @_ZN16b3GpuNarrowPhase18allocateCollidableEv(ptr noundef nonnull align 8 dereferenceable(56) %12)
  store i32 %13, ptr %8, align 4, !tbaa !85
  %14 = load i32, ptr %8, align 4, !tbaa !85
  %15 = icmp slt i32 %14, 0
  br i1 %15, label %16, label %18

16:                                               ; preds = %3
  %17 = load i32, ptr %8, align 4, !tbaa !85
  store i32 %17, ptr %4, align 4
  store i32 1, ptr %9, align 4
  br label %62

18:                                               ; preds = %3
  call void @llvm.lifetime.start.p0(i64 8, ptr %10) #16
  %19 = load i32, ptr %8, align 4, !tbaa !85
  %20 = call noundef nonnull align 4 dereferenceable(16) ptr @_ZN16b3GpuNarrowPhase16getCollidableCpuEi(ptr noundef nonnull align 8 dereferenceable(56) %12, i32 noundef %19)
  store ptr %20, ptr %10, align 8, !tbaa !200
  %21 = load ptr, ptr %10, align 8, !tbaa !200
  %22 = getelementptr inbounds nuw %struct.b3Collidable, ptr %21, i32 0, i32 2
  store i32 4, ptr %22, align 4, !tbaa !355
  %23 = load ptr, ptr %6, align 8, !tbaa !276
  %24 = load float, ptr %7, align 4, !tbaa !309
  %25 = call noundef i32 @_ZN16b3GpuNarrowPhase12registerFaceERK9b3Vector3f(ptr noundef nonnull align 8 dereferenceable(56) %12, ptr noundef nonnull align 16 dereferenceable(16) %23, float noundef %24)
  %26 = load ptr, ptr %10, align 8, !tbaa !200
  %27 = getelementptr inbounds nuw %struct.b3Collidable, ptr %26, i32 0, i32 3
  store i32 %25, ptr %27, align 4, !tbaa !308
  %28 = load float, ptr %7, align 4, !tbaa !309
  %29 = load ptr, ptr %10, align 8, !tbaa !200
  %30 = getelementptr inbounds nuw %struct.b3Collidable, ptr %29, i32 0, i32 1
  store float %28, ptr %30, align 4, !tbaa !308
  %31 = load ptr, ptr %10, align 8, !tbaa !200
  %32 = getelementptr inbounds nuw %struct.b3Collidable, ptr %31, i32 0, i32 3
  %33 = load i32, ptr %32, align 4, !tbaa !308
  %34 = icmp sge i32 %33, 0
  br i1 %34, label %35, label %60

35:                                               ; preds = %18
  call void @llvm.lifetime.start.p0(i64 32, ptr %11) #16
  %36 = getelementptr inbounds nuw %struct.b3Aabb, ptr %11, i32 0, i32 0
  %37 = getelementptr inbounds [4 x float], ptr %36, i64 0, i64 0
  store float 0xC6293E5940000000, ptr %37, align 16, !tbaa !308
  %38 = getelementptr inbounds nuw %struct.b3Aabb, ptr %11, i32 0, i32 0
  %39 = getelementptr inbounds [4 x float], ptr %38, i64 0, i64 1
  store float 0xC6293E5940000000, ptr %39, align 4, !tbaa !308
  %40 = getelementptr inbounds nuw %struct.b3Aabb, ptr %11, i32 0, i32 0
  %41 = getelementptr inbounds [4 x float], ptr %40, i64 0, i64 2
  store float 0xC6293E5940000000, ptr %41, align 8, !tbaa !308
  %42 = getelementptr inbounds nuw %struct.b3Aabb, ptr %11, i32 0, i32 0
  %43 = getelementptr inbounds [4 x i32], ptr %42, i64 0, i64 3
  store i32 0, ptr %43, align 4, !tbaa !308
  %44 = getelementptr inbounds nuw %struct.b3Aabb, ptr %11, i32 0, i32 1
  %45 = getelementptr inbounds [4 x float], ptr %44, i64 0, i64 0
  store float 0x46293E5940000000, ptr %45, align 16, !tbaa !308
  %46 = getelementptr inbounds nuw %struct.b3Aabb, ptr %11, i32 0, i32 1
  %47 = getelementptr inbounds [4 x float], ptr %46, i64 0, i64 1
  store float 0x46293E5940000000, ptr %47, align 4, !tbaa !308
  %48 = getelementptr inbounds nuw %struct.b3Aabb, ptr %11, i32 0, i32 1
  %49 = getelementptr inbounds [4 x float], ptr %48, i64 0, i64 2
  store float 0x46293E5940000000, ptr %49, align 8, !tbaa !308
  %50 = getelementptr inbounds nuw %struct.b3Aabb, ptr %11, i32 0, i32 1
  %51 = getelementptr inbounds [4 x i32], ptr %50, i64 0, i64 3
  store i32 0, ptr %51, align 4, !tbaa !308
  %52 = getelementptr inbounds nuw %class.b3GpuNarrowPhase, ptr %12, i32 0, i32 1
  %53 = load ptr, ptr %52, align 8, !tbaa !19
  %54 = getelementptr inbounds nuw %struct.b3GpuNarrowPhaseInternalData, ptr %53, i32 0, i32 32
  %55 = load ptr, ptr %54, align 8, !tbaa !100
  call void @_ZN20b3AlignedObjectArrayI9b3SapAabbE9push_backERKS0_(ptr noundef nonnull align 8 dereferenceable(25) %55, ptr noundef nonnull align 16 dereferenceable(32) %11)
  %56 = load ptr, ptr @__clewFinish, align 8, !tbaa !357
  %57 = getelementptr inbounds nuw %class.b3GpuNarrowPhase, ptr %12, i32 0, i32 7
  %58 = load ptr, ptr %57, align 8, !tbaa !27
  %59 = call i32 %56(ptr noundef %58)
  call void @llvm.lifetime.end.p0(i64 32, ptr %11) #16
  br label %60

60:                                               ; preds = %35, %18
  %61 = load i32, ptr %8, align 4, !tbaa !85
  store i32 %61, ptr %4, align 4
  store i32 1, ptr %9, align 4
  call void @llvm.lifetime.end.p0(i64 8, ptr %10) #16
  br label %62

62:                                               ; preds = %60, %16
  call void @llvm.lifetime.end.p0(i64 4, ptr %8) #16
  %63 = load i32, ptr %4, align 4
  ret i32 %63
}