; Function Attrs: mustprogress uwtable
define dso_local noundef range(i32 -2147483648, 2147483647) i32 @_ZN16b3GpuNarrowPhase18registerPlaneShapeERK9b3Vector3f(ptr noundef nonnull readonly align 8 captures(none) dereferenceable(56) %0, ptr noundef nonnull readonly align 16 captures(none) dereferenceable(16) %1, float noundef %2) local_unnamed_addr #12 align 2 {
  %4 = alloca %struct.b3GpuFace, align 16
  %5 = alloca %struct.b3Collidable, align 4
  %6 = alloca %struct.b3SapAabb, align 16
  %7 = getelementptr inbounds nuw i8, ptr %0, i64 8
  %8 = load ptr, ptr %7, align 8, !tbaa !7
  %9 = getelementptr inbounds nuw i8, ptr %8, i64 380
  %10 = load i32, ptr %9, align 4, !tbaa !121
  %11 = getelementptr inbounds nuw i8, ptr %8, i64 620
  %12 = load i32, ptr %11, align 4, !tbaa !334
  %13 = icmp slt i32 %10, %12
  br i1 %13, label %_ZN16b3GpuNarrowPhase18allocateCollidableEv.exit, label %_ZN16b3GpuNarrowPhase18allocateCollidableEv.exit.thread

_ZN16b3GpuNarrowPhase18allocateCollidableEv.exit.thread: ; preds = %3
  tail call void (ptr, ...) @b3OutputErrorMessageVarArgsInternal(ptr noundef nonnull @.str, ptr noundef nonnull @.str.1, i32 noundef 154)
  %14 = load ptr, ptr %7, align 8, !tbaa !7
  %15 = getelementptr inbounds nuw i8, ptr %14, i64 620
  %16 = load i32, ptr %15, align 4, !tbaa !334
  tail call void (ptr, ...) @b3OutputErrorMessageVarArgsInternal(ptr noundef nonnull @.str.2, i32 noundef %16)
  br label %50

_ZN16b3GpuNarrowPhase18allocateCollidableEv.exit: ; preds = %3
  %17 = getelementptr inbounds nuw i8, ptr %8, i64 376
  call void @llvm.lifetime.start.p0(i64 16, ptr nonnull %5) #18
  call void @llvm.memset.p0.i64(ptr noundef nonnull align 4 dereferenceable(16) %5, i8 0, i64 16, i1 false)
  %18 = call noundef nonnull align 4 dereferenceable(16) ptr @_ZN20b3AlignedObjectArrayI12b3CollidableE6expandERKS0_(ptr noundef nonnull align 8 dereferenceable(25) %17, ptr noundef nonnull align 4 dereferenceable(16) %5)
  call void @llvm.lifetime.end.p0(i64 16, ptr nonnull %5) #18
  %19 = icmp slt i32 %10, 0
  br i1 %19, label %50, label %20

20:                                               ; preds = %_ZN16b3GpuNarrowPhase18allocateCollidableEv.exit
  %21 = load ptr, ptr %7, align 8, !tbaa !7
  %22 = getelementptr inbounds nuw i8, ptr %21, i64 392
  %23 = load ptr, ptr %22, align 8, !tbaa !122
  %24 = zext nneg i32 %10 to i64
  %25 = getelementptr inbounds nuw %struct.b3Collidable, ptr %23, i64 %24
  %26 = getelementptr inbounds nuw i8, ptr %25, i64 8
  store i32 4, ptr %26, align 4, !tbaa !335
  %27 = getelementptr inbounds nuw i8, ptr %21, i64 248
  %28 = getelementptr inbounds nuw i8, ptr %21, i64 252
  %29 = load i32, ptr %28, align 4, !tbaa !140
  call void @llvm.lifetime.start.p0(i64 32, ptr nonnull %4) #18
  call void @llvm.memset.p0.i64(ptr noundef nonnull align 16 dereferenceable(32) %4, i8 0, i64 32, i1 false)
  %30 = call noundef nonnull align 16 dereferenceable(32) ptr @_ZN20b3AlignedObjectArrayI9b3GpuFaceE6expandERKS0_(ptr noundef nonnull align 8 dereferenceable(25) %27, ptr noundef nonnull align 16 dereferenceable(32) %4)
  call void @llvm.lifetime.end.p0(i64 32, ptr nonnull %4) #18
  %31 = load <4 x float>, ptr %1, align 16
  %.sroa.3.12.vec.insert6.i.i = shufflevector <4 x float> %31, <4 x float> poison, <2 x i32> <i32 2, i32 poison>
  %.sroa.0.4.vec.insert.i.i = shufflevector <4 x float> %31, <4 x float> poison, <2 x i32> <i32 0, i32 1>
  %.sroa.3.12.vec.insert.i.i = insertelement <2 x float> %.sroa.3.12.vec.insert6.i.i, float %2, i64 1
  store <2 x float> %.sroa.0.4.vec.insert.i.i, ptr %30, align 16
  %.sroa.4.0..sroa_idx.i = getelementptr inbounds nuw i8, ptr %30, i64 8
  store <2 x float> %.sroa.3.12.vec.insert.i.i, ptr %.sroa.4.0..sroa_idx.i, align 8, !tbaa !124
  %32 = getelementptr inbounds nuw i8, ptr %25, i64 12
  store i32 %29, ptr %32, align 4, !tbaa !124
  %33 = getelementptr inbounds nuw i8, ptr %25, i64 4
  store float %2, ptr %33, align 4, !tbaa !124
  %34 = icmp sgt i32 %29, -1
  br i1 %34, label %35, label %50

35:                                               ; preds = %20
  call void @llvm.lifetime.start.p0(i64 32, ptr nonnull %6) #18
  store float 0xC6293E5940000000, ptr %6, align 16, !tbaa !124
  %36 = getelementptr inbounds nuw i8, ptr %6, i64 4
  store float 0xC6293E5940000000, ptr %36, align 4, !tbaa !124
  %37 = getelementptr inbounds nuw i8, ptr %6, i64 8
  store float 0xC6293E5940000000, ptr %37, align 8, !tbaa !124
  %38 = getelementptr inbounds nuw i8, ptr %6, i64 12
  store i32 0, ptr %38, align 4, !tbaa !124
  %39 = getelementptr inbounds nuw i8, ptr %6, i64 16
  store float 0x46293E5940000000, ptr %39, align 16, !tbaa !124
  %40 = getelementptr inbounds nuw i8, ptr %6, i64 20
  store float 0x46293E5940000000, ptr %40, align 4, !tbaa !124
  %41 = getelementptr inbounds nuw i8, ptr %6, i64 24
  store float 0x46293E5940000000, ptr %41, align 8, !tbaa !124
  %42 = getelementptr inbounds nuw i8, ptr %6, i64 28
  store i32 0, ptr %42, align 4, !tbaa !124
  %43 = load ptr, ptr %7, align 8, !tbaa !7
  %44 = getelementptr inbounds nuw i8, ptr %43, i64 424
  %45 = load ptr, ptr %44, align 8, !tbaa !134
  call void @_ZN20b3AlignedObjectArrayI9b3SapAabbE9push_backERKS0_(ptr noundef nonnull align 8 dereferenceable(25) %45, ptr noundef nonnull align 16 dereferenceable(32) %6)
  %46 = load ptr, ptr @__clewFinish, align 8, !tbaa !218
  %47 = getelementptr inbounds nuw i8, ptr %0, i64 48
  %48 = load ptr, ptr %47, align 8, !tbaa !20
  %49 = call i32 %46(ptr noundef %48)
  call void @llvm.lifetime.end.p0(i64 32, ptr nonnull %6) #18
  br label %50

50:                                               ; preds = %_ZN16b3GpuNarrowPhase18allocateCollidableEv.exit.thread, %20, %35, %_ZN16b3GpuNarrowPhase18allocateCollidableEv.exit
  %.0.i13 = phi i32 [ -1, %_ZN16b3GpuNarrowPhase18allocateCollidableEv.exit.thread ], [ %10, %20 ], [ %10, %35 ], [ %10, %_ZN16b3GpuNarrowPhase18allocateCollidableEv.exit ]
  ret i32 %.0.i13
}